; Function Attrs: nounwind uwtable
define void @Cgt_ManDetectCandidates(ptr noundef %0, ptr noundef %1, ptr noundef %2, i32 noundef %3, ptr noundef initializes((4, 8)) %4) local_unnamed_addr #0 {
  %6 = getelementptr inbounds nuw i8, ptr %4, i64 4
  store i32 0, ptr %6, align 4, !tbaa !28
  %7 = getelementptr i8, ptr %2, i64 24
  %.val = load i64, ptr %7, align 8
  %8 = trunc i64 %.val to i32
  %9 = and i32 %8, 7
  %10 = add nsw i32 %9, -7
  %narrow.i = icmp ult i32 %10, -2
  br i1 %narrow.i, label %12, label %11

11:                                               ; preds = %5
  tail call void @Aig_ManIncrementTravId(ptr noundef %0) #13
  tail call void @Cgt_ManDetectCandidates_rec(ptr noundef %0, ptr noundef %1, ptr noundef nonnull %2, i32 noundef %3, ptr noundef nonnull %4)
  br label %12

12:                                               ; preds = %5, %11
  ret void
}